target datalayout = "e-m:e-p270:32:32-p271:32:32-p272:64:64-i64:64-i128:128-f80:128-n8:16:32:64-S128"
target triple = "x86_64-pc-linux-gnu"

%struct.JNINativeInterface_ = type { ptr, ptr, ptr, ptr, ptr, ptr, ptr, ptr, ptr, ptr, ptr, ptr, ptr, ptr, ptr, ptr, ptr, ptr, ptr, ptr, ptr, ptr, ptr, ptr, ptr, ptr, ptr, ptr, ptr, ptr, ptr, ptr, ptr, ptr, ptr, ptr, ptr, ptr, ptr, ptr, ptr, ptr, ptr, ptr, ptr, ptr, ptr, ptr, ptr, ptr, ptr, ptr, ptr, ptr, ptr, ptr, ptr, ptr, ptr, ptr, ptr, ptr, ptr, ptr, ptr, ptr, ptr, ptr, ptr, ptr, ptr, ptr, ptr, ptr, ptr, ptr, ptr, ptr, ptr, ptr, ptr, ptr, ptr, ptr, ptr, ptr, ptr, ptr, ptr, ptr, ptr, ptr, ptr, ptr, ptr, ptr, ptr, ptr, ptr, ptr, ptr, ptr, ptr, ptr, ptr, ptr, ptr, ptr, ptr, ptr, ptr, ptr, ptr, ptr, ptr, ptr, ptr, ptr, ptr, ptr, ptr, ptr, ptr, ptr, ptr, ptr, ptr, ptr, ptr, ptr, ptr, ptr, ptr, ptr, ptr, ptr, ptr, ptr, ptr, ptr, ptr, ptr, ptr, ptr, ptr, ptr, ptr, ptr, ptr, ptr, ptr, ptr, ptr, ptr, ptr, ptr, ptr, ptr, ptr, ptr, ptr, ptr, ptr, ptr, ptr, ptr, ptr, ptr, ptr, ptr, ptr, ptr, ptr, ptr, ptr, ptr, ptr, ptr, ptr, ptr, ptr, ptr, ptr, ptr, ptr, ptr, ptr, ptr, ptr, ptr, ptr, ptr, ptr, ptr, ptr, ptr, ptr, ptr, ptr, ptr, ptr, ptr, ptr, ptr, ptr, ptr, ptr, ptr, ptr, ptr, ptr, ptr, ptr, ptr, ptr, ptr, ptr, ptr, ptr, ptr, ptr, ptr, ptr, ptr, ptr, ptr, ptr, ptr, ptr, ptr, ptr, ptr, ptr, ptr, ptr }
%struct.anon = type { ptr, ptr, i32, i32, i32, i32, ptr, i64, i64, i64, i32, ptr, i32, i32, i32, i32, i32, ptr, i32, i32, ptr, ptr, i32, i64, i64, ptr, ptr, ptr, ptr, i32, ptr, ptr, ptr, i32, i32, ptr, i64, i64, i32, i32, ptr, ptr, i32, ptr }
%struct.Screen = type { ptr, ptr, i64, i32, i32, i32, i32, i32, ptr, i32, ptr, ptr, i64, i64, i64, i32, i32, i32, i32, i64 }
%struct.XRRScreenSize = type { i32, i32, i32, i32 }

@tkClass = hidden global ptr null, align 8
@awtLockMID = hidden global ptr null, align 8
@awtUnlockMID = hidden global ptr null, align 8
@awt_display = hidden global ptr null, align 8
@awt_XRRGetScreenInfo = internal global ptr null, align 8
@awt_XRRConfigSizes = internal global ptr null, align 8
@awt_XRRFreeScreenConfigInfo = internal global ptr null, align 8
@awt_XRRConfigRates = internal global ptr null, align 8
@awt_XRRConfigRotations = internal global ptr null, align 8
@awt_XRRSetScreenConfigAndRate = internal global ptr null, align 8
@.str.38 = private unnamed_addr constant [27 x i8] c"Could not set display mode\00", align 1

; Function Attrs: nounwind uwtable
define void @Java_sun_awt_X11GraphicsDevice_configDisplayMode(ptr noundef %0, ptr noundef %1, i32 noundef %2, i32 noundef %3, i32 noundef %4, i32 noundef %5) #0 {
  %7 = alloca ptr, align 8
  %8 = alloca ptr, align 8
  %9 = alloca i32, align 4
  %10 = alloca i32, align 4
  %11 = alloca i32, align 4
  %12 = alloca i32, align 4
  %13 = alloca i8, align 1
  %14 = alloca ptr, align 8
  %15 = alloca i64, align 8
  %16 = alloca i16, align 2
  %17 = alloca i8, align 1
  %18 = alloca i32, align 4
  %19 = alloca i16, align 2
  %20 = alloca i32, align 4
  %21 = alloca ptr, align 8
  %22 = alloca i32, align 4
  %23 = alloca i32, align 4
  %24 = alloca %struct.XRRScreenSize, align 4
  %25 = alloca i32, align 4
  %26 = alloca ptr, align 8
  %27 = alloca i32, align 4
  %28 = alloca ptr, align 8
  store ptr %0, ptr %7, align 8
  store ptr %1, ptr %8, align 8
  store i32 %2, ptr %9, align 4
  store i32 %3, ptr %10, align 4
  store i32 %4, ptr %11, align 4
  store i32 %5, ptr %12, align 4
  store i8 0, ptr %13, align 1
  store i16 1, ptr %16, align 2
  br label %29

29:                                               ; preds = %6
  %30 = load ptr, ptr %7, align 8
  %31 = load ptr, ptr %30, align 8
  %32 = getelementptr inbounds %struct.JNINativeInterface_, ptr %31, i32 0, i32 228
  %33 = load ptr, ptr %32, align 8
  %34 = load ptr, ptr %7, align 8
  %35 = call zeroext i8 %33(ptr noundef %34)
  %36 = icmp ne i8 %35, 0
  br i1 %36, label %37, label %43

37:                                               ; preds = %29
  %38 = load ptr, ptr %7, align 8
  %39 = load ptr, ptr %38, align 8
  %40 = getelementptr inbounds %struct.JNINativeInterface_, ptr %39, i32 0, i32 17
  %41 = load ptr, ptr %40, align 8
  %42 = load ptr, ptr %7, align 8
  call void %41(ptr noundef %42)
  br label %43

43:                                               ; preds = %37, %29
  %44 = load ptr, ptr %7, align 8
  %45 = load ptr, ptr %44, align 8
  %46 = getelementptr inbounds %struct.JNINativeInterface_, ptr %45, i32 0, i32 141
  %47 = load ptr, ptr %46, align 8
  %48 = load ptr, ptr %7, align 8
  %49 = load ptr, ptr @tkClass, align 8
  %50 = load ptr, ptr @awtLockMID, align 8
  call void (ptr, ptr, ptr, ...) %47(ptr noundef %48, ptr noundef %49, ptr noundef %50)
  %51 = load ptr, ptr %7, align 8
  %52 = load ptr, ptr %51, align 8
  %53 = getelementptr inbounds %struct.JNINativeInterface_, ptr %52, i32 0, i32 228
  %54 = load ptr, ptr %53, align 8
  %55 = load ptr, ptr %7, align 8
  %56 = call zeroext i8 %54(ptr noundef %55)
  %57 = icmp ne i8 %56, 0
  br i1 %57, label %58, label %64

58:                                               ; preds = %43
  %59 = load ptr, ptr %7, align 8
  %60 = load ptr, ptr %59, align 8
  %61 = getelementptr inbounds %struct.JNINativeInterface_, ptr %60, i32 0, i32 17
  %62 = load ptr, ptr %61, align 8
  %63 = load ptr, ptr %7, align 8
  call void %62(ptr noundef %63)
  br label %64

64:                                               ; preds = %58, %43
  br label %65

65:                                               ; preds = %64
  %66 = load ptr, ptr @awt_display, align 8
  %67 = getelementptr inbounds %struct.anon, ptr %66, i32 0, i32 35
  %68 = load ptr, ptr %67, align 8
  %69 = load i32, ptr %9, align 4
  %70 = sext i32 %69 to i64
  %71 = getelementptr inbounds %struct.Screen, ptr %68, i64 %70
  %72 = getelementptr inbounds %struct.Screen, ptr %71, i32 0, i32 2
  %73 = load i64, ptr %72, align 8
  store i64 %73, ptr %15, align 8
  %74 = load ptr, ptr @awt_XRRGetScreenInfo, align 8
  %75 = load ptr, ptr @awt_display, align 8
  %76 = load i64, ptr %15, align 8
  %77 = call ptr %74(ptr noundef %75, i64 noundef %76)
  store ptr %77, ptr %14, align 8
  %78 = load ptr, ptr %14, align 8
  %79 = icmp ne ptr %78, null
  br i1 %79, label %80, label %164

80:                                               ; preds = %65
  store i8 0, ptr %17, align 1
  store i32 -1, ptr %18, align 4
  store i16 -1, ptr %19, align 2
  %81 = load ptr, ptr @awt_XRRConfigSizes, align 8
  %82 = load ptr, ptr %14, align 8
  %83 = call ptr %81(ptr noundef %82, ptr noundef %20)
  store ptr %83, ptr %21, align 8
  %84 = load ptr, ptr @awt_XRRConfigRotations, align 8
  %85 = load ptr, ptr %14, align 8
  %86 = call zeroext i16 %84(ptr noundef %85, ptr noundef %16)
  %87 = load ptr, ptr %21, align 8
  %88 = icmp ne ptr %87, null
  br i1 %88, label %89, label %143

89:                                               ; preds = %80
  store i32 0, ptr %22, align 4
  br label %90

90:                                               ; preds = %139, %89
  %91 = load i32, ptr %22, align 4
  %92 = load i32, ptr %20, align 4
  %93 = icmp slt i32 %91, %92
  br i1 %93, label %94, label %142

94:                                               ; preds = %90
  %95 = load ptr, ptr %21, align 8
  %96 = load i32, ptr %22, align 4
  %97 = sext i32 %96 to i64
  %98 = getelementptr inbounds %struct.XRRScreenSize, ptr %95, i64 %97
  call void @llvm.memcpy.p0.p0.i64(ptr align 4 %24, ptr align 4 %98, i64 16, i1 false)
  %99 = getelementptr inbounds %struct.XRRScreenSize, ptr %24, i32 0, i32 0
  %100 = load i32, ptr %99, align 4
  %101 = load i32, ptr %10, align 4
  %102 = icmp eq i32 %100, %101
  br i1 %102, label %103, label %138

103:                                              ; preds = %94
  %104 = getelementptr inbounds %struct.XRRScreenSize, ptr %24, i32 0, i32 1
  %105 = load i32, ptr %104, align 4
  %106 = load i32, ptr %11, align 4
  %107 = icmp eq i32 %105, %106
  br i1 %107, label %108, label %138

108:                                              ; preds = %103
  %109 = load ptr, ptr @awt_XRRConfigRates, align 8
  %110 = load ptr, ptr %14, align 8
  %111 = load i32, ptr %22, align 4
  %112 = call ptr %109(ptr noundef %110, i32 noundef %111, ptr noundef %25)
  store ptr %112, ptr %26, align 8
  store i32 0, ptr %23, align 4
  br label %113

113:                                              ; preds = %134, %108
  %114 = load i32, ptr %23, align 4
  %115 = load i32, ptr %25, align 4
  %116 = icmp slt i32 %114, %115
  br i1 %116, label %117, label %137

117:                                              ; preds = %113
  %118 = load ptr, ptr %26, align 8
  %119 = load i32, ptr %23, align 4
  %120 = sext i32 %119 to i64
  %121 = getelementptr inbounds i16, ptr %118, i64 %120
  %122 = load i16, ptr %121, align 2
  %123 = sext i16 %122 to i32
  %124 = load i32, ptr %12, align 4
  %125 = icmp eq i32 %123, %124
  br i1 %125, label %126, label %133

126:                                              ; preds = %117
  %127 = load i32, ptr %22, align 4
  store i32 %127, ptr %18, align 4
  %128 = load ptr, ptr %26, align 8
  %129 = load i32, ptr %23, align 4
  %130 = sext i32 %129 to i64
  %131 = getelementptr inbounds i16, ptr %128, i64 %130
  %132 = load i16, ptr %131, align 2
  store i16 %132, ptr %19, align 2
  store i8 1, ptr %17, align 1
  br label %137

133:                                              ; preds = %117
  br label %134

134:                                              ; preds = %133
  %135 = load i32, ptr %23, align 4
  %136 = add nsw i32 %135, 1
  store i32 %136, ptr %23, align 4
  br label %113, !llvm.loop !21

137:                                              ; preds = %126, %113
  br label %142

138:                                              ; preds = %103, %94
  br label %139

139:                                              ; preds = %138
  %140 = load i32, ptr %22, align 4
  %141 = add nsw i32 %140, 1
  store i32 %141, ptr %22, align 4
  br label %90, !llvm.loop !22

142:                                              ; preds = %137, %90
  br label %143

143:                                              ; preds = %142, %80
  %144 = load i8, ptr %17, align 1
  %145 = icmp ne i8 %144, 0
  br i1 %145, label %146, label %161

146:                                              ; preds = %143
  %147 = load ptr, ptr @awt_XRRSetScreenConfigAndRate, align 8
  %148 = load ptr, ptr @awt_display, align 8
  %149 = load ptr, ptr %14, align 8
  %150 = load i64, ptr %15, align 8
  %151 = load i32, ptr %18, align 4
  %152 = load i16, ptr %16, align 2
  %153 = load i16, ptr %19, align 2
  %154 = call i32 %147(ptr noundef %148, ptr noundef %149, i64 noundef %150, i32 noundef %151, i16 noundef zeroext %152, i16 noundef signext %153, i64 noundef 0)
  store i32 %154, ptr %27, align 4
  %155 = load ptr, ptr @awt_display, align 8
  %156 = call i32 @XSync(ptr noundef %155, i32 noundef 0)
  %157 = load i32, ptr %27, align 4
  %158 = icmp eq i32 %157, 0
  br i1 %158, label %159, label %160

159:                                              ; preds = %146
  store i8 1, ptr %13, align 1
  br label %160

160:                                              ; preds = %159, %146
  br label %161

161:                                              ; preds = %160, %143
  %162 = load ptr, ptr @awt_XRRFreeScreenConfigInfo, align 8
  %163 = load ptr, ptr %14, align 8
  call void %162(ptr noundef %163)
  br label %164

164:                                              ; preds = %161, %65
  br label %165

165:                                              ; preds = %164
  call void (...) @awt_output_flush()
  br label %166

166:                                              ; preds = %165
  %167 = load ptr, ptr %7, align 8
  %168 = load ptr, ptr %167, align 8
  %169 = getelementptr inbounds %struct.JNINativeInterface_, ptr %168, i32 0, i32 15
  %170 = load ptr, ptr %169, align 8
  %171 = load ptr, ptr %7, align 8
  %172 = call ptr %170(ptr noundef %171)
  store ptr %172, ptr %28, align 8
  %173 = icmp ne ptr %172, null
  br i1 %173, label %174, label %180

174:                                              ; preds = %166
  %175 = load ptr, ptr %7, align 8
  %176 = load ptr, ptr %175, align 8
  %177 = getelementptr inbounds %struct.JNINativeInterface_, ptr %176, i32 0, i32 17
  %178 = load ptr, ptr %177, align 8
  %179 = load ptr, ptr %7, align 8
  call void %178(ptr noundef %179)
  br label %180

180:                                              ; preds = %174, %166
  %181 = load ptr, ptr %7, align 8
  %182 = load ptr, ptr %181, align 8
  %183 = getelementptr inbounds %struct.JNINativeInterface_, ptr %182, i32 0, i32 141
  %184 = load ptr, ptr %183, align 8
  %185 = load ptr, ptr %7, align 8
  %186 = load ptr, ptr @tkClass, align 8
  %187 = load ptr, ptr @awtUnlockMID, align 8
  call void (ptr, ptr, ptr, ...) %184(ptr noundef %185, ptr noundef %186, ptr noundef %187)
  %188 = load ptr, ptr %7, align 8
  %189 = load ptr, ptr %188, align 8
  %190 = getelementptr inbounds %struct.JNINativeInterface_, ptr %189, i32 0, i32 228
  %191 = load ptr, ptr %190, align 8
  %192 = load ptr, ptr %7, align 8
  %193 = call zeroext i8 %191(ptr noundef %192)
  %194 = icmp ne i8 %193, 0
  br i1 %194, label %195, label %201

195:                                              ; preds = %180
  %196 = load ptr, ptr %7, align 8
  %197 = load ptr, ptr %196, align 8
  %198 = getelementptr inbounds %struct.JNINativeInterface_, ptr %197, i32 0, i32 17
  %199 = load ptr, ptr %198, align 8
  %200 = load ptr, ptr %7, align 8
  call void %199(ptr noundef %200)
  br label %201

201:                                              ; preds = %195, %180
  %202 = load ptr, ptr %28, align 8
  %203 = icmp ne ptr %202, null
  br i1 %203, label %204, label %212

204:                                              ; preds = %201
  %205 = load ptr, ptr %7, align 8
  %206 = load ptr, ptr %205, align 8
  %207 = getelementptr inbounds %struct.JNINativeInterface_, ptr %206, i32 0, i32 13
  %208 = load ptr, ptr %207, align 8
  %209 = load ptr, ptr %7, align 8
  %210 = load ptr, ptr %28, align 8
  %211 = call i32 %208(ptr noundef %209, ptr noundef %210)
  br label %212

212:                                              ; preds = %204, %201
  br label %213

213:                                              ; preds = %212
  br label %214

214:                                              ; preds = %213
  %215 = load i8, ptr %13, align 1
  %216 = icmp ne i8 %215, 0
  br i1 %216, label %227, label %217

217:                                              ; preds = %214
  %218 = load ptr, ptr %7, align 8
  %219 = load ptr, ptr %218, align 8
  %220 = getelementptr inbounds %struct.JNINativeInterface_, ptr %219, i32 0, i32 228
  %221 = load ptr, ptr %220, align 8
  %222 = load ptr, ptr %7, align 8
  %223 = call zeroext i8 %221(ptr noundef %222)
  %224 = icmp ne i8 %223, 0
  br i1 %224, label %227, label %225

225:                                              ; preds = %217
  %226 = load ptr, ptr %7, align 8
  call void @JNU_ThrowInternalError(ptr noundef %226, ptr noundef @.str.38)
  br label %227

227:                                              ; preds = %225, %217, %214
  ret void
}