; Function Attrs: nounwind uwtable
define void @Java_sun_awt_X11GraphicsDevice_configDisplayMode(ptr noundef %0, ptr nocapture noundef readnone %1, i32 noundef %2, i32 noundef %3, i32 noundef %4, i32 noundef %5) local_unnamed_addr #0 {
  %7 = alloca i16, align 2
  %8 = alloca i32, align 4
  %9 = alloca i32, align 4
  store i16 1, ptr %7, align 2
  %10 = load ptr, ptr %0, align 8
  %11 = getelementptr inbounds i8, ptr %10, i64 1824
  %12 = load ptr, ptr %11, align 8
  %13 = tail call zeroext i8 %12(ptr noundef nonnull %0) #17
  %.not = icmp eq i8 %13, 0
  br i1 %.not, label %18, label %14

14:                                               ; preds = %6
  %15 = load ptr, ptr %0, align 8
  %16 = getelementptr inbounds i8, ptr %15, i64 136
  %17 = load ptr, ptr %16, align 8
  tail call void %17(ptr noundef nonnull %0) #17
  br label %18

18:                                               ; preds = %14, %6
  %19 = load ptr, ptr %0, align 8
  %20 = getelementptr inbounds i8, ptr %19, i64 1128
  %21 = load ptr, ptr %20, align 8
  %22 = load ptr, ptr @tkClass, align 8
  %23 = load ptr, ptr @awtLockMID, align 8
  tail call void (ptr, ptr, ptr, ...) %21(ptr noundef nonnull %0, ptr noundef %22, ptr noundef %23) #17
  %24 = load ptr, ptr %0, align 8
  %25 = getelementptr inbounds i8, ptr %24, i64 1824
  %26 = load ptr, ptr %25, align 8
  %27 = tail call zeroext i8 %26(ptr noundef nonnull %0) #17
  %.not64 = icmp eq i8 %27, 0
  br i1 %.not64, label %32, label %28

28:                                               ; preds = %18
  %29 = load ptr, ptr %0, align 8
  %30 = getelementptr inbounds i8, ptr %29, i64 136
  %31 = load ptr, ptr %30, align 8
  tail call void %31(ptr noundef nonnull %0) #17
  br label %32

32:                                               ; preds = %18, %28
  %33 = load ptr, ptr @awt_display, align 8
  %34 = getelementptr inbounds i8, ptr %33, i64 232
  %35 = load ptr, ptr %34, align 8
  %36 = sext i32 %2 to i64
  %37 = getelementptr inbounds %struct.Screen, ptr %35, i64 %36, i32 2
  %38 = load i64, ptr %37, align 8
  %39 = load ptr, ptr @awt_XRRGetScreenInfo, align 8
  %40 = tail call ptr %39(ptr noundef %33, i64 noundef %38) #17
  %.not65 = icmp eq ptr %40, null
  br i1 %.not65, label %74, label %41

41:                                               ; preds = %32
  %42 = load ptr, ptr @awt_XRRConfigSizes, align 8
  %43 = call ptr %42(ptr noundef nonnull %40, ptr noundef nonnull %8) #17
  %44 = load ptr, ptr @awt_XRRConfigRotations, align 8
  %45 = call zeroext i16 %44(ptr noundef nonnull %40, ptr noundef nonnull %7) #17
  %.not66 = icmp eq ptr %43, null
  br i1 %.not66, label %.thread, label %.preheader

.preheader:                                       ; preds = %41
  %46 = load i32, ptr %8, align 4
  %47 = icmp sgt i32 %46, 0
  br i1 %47, label %.lr.ph.preheader, label %.thread

.lr.ph.preheader:                                 ; preds = %.preheader
  %wide.trip.count = zext nneg i32 %46 to i64
  br label %.lr.ph

.lr.ph:                                           ; preds = %.lr.ph.preheader, %63
  %indvars.iv = phi i64 [ 0, %.lr.ph.preheader ], [ %indvars.iv.next, %63 ]
  %48 = getelementptr inbounds %struct.XRRScreenSize, ptr %43, i64 %indvars.iv
  %.sroa.0.0.copyload = load i32, ptr %48, align 4
  %49 = icmp eq i32 %.sroa.0.0.copyload, %3
  br i1 %49, label %50, label %63

50:                                               ; preds = %.lr.ph
  %.sroa.2.0..sroa_idx = getelementptr inbounds i8, ptr %48, i64 4
  %.sroa.2.0.copyload = load i32, ptr %.sroa.2.0..sroa_idx, align 4
  %51 = icmp eq i32 %.sroa.2.0.copyload, %4
  br i1 %51, label %52, label %63

52:                                               ; preds = %50
  %53 = trunc nuw nsw i64 %indvars.iv to i32
  %54 = load ptr, ptr @awt_XRRConfigRates, align 8
  %55 = call ptr %54(ptr noundef nonnull %40, i32 noundef %53, ptr noundef nonnull %9) #17
  %56 = load i32, ptr %9, align 4
  %57 = icmp sgt i32 %56, 0
  br i1 %57, label %.lr.ph79.preheader, label %.thread

.lr.ph79.preheader:                               ; preds = %52
  %wide.trip.count87 = zext nneg i32 %56 to i64
  br label %.lr.ph79

58:                                               ; preds = %.lr.ph79
  %indvars.iv.next85 = add nuw nsw i64 %indvars.iv84, 1
  %exitcond88.not = icmp eq i64 %indvars.iv.next85, %wide.trip.count87
  br i1 %exitcond88.not, label %.thread, label %.lr.ph79, !llvm.loop !20

.lr.ph79:                                         ; preds = %.lr.ph79.preheader, %58
  %indvars.iv84 = phi i64 [ 0, %.lr.ph79.preheader ], [ %indvars.iv.next85, %58 ]
  %59 = getelementptr inbounds i16, ptr %55, i64 %indvars.iv84
  %60 = load i16, ptr %59, align 2
  %61 = sext i16 %60 to i32
  %62 = icmp eq i32 %61, %5
  br i1 %62, label %64, label %58

63:                                               ; preds = %.lr.ph, %50
  %indvars.iv.next = add nuw nsw i64 %indvars.iv, 1
  %exitcond.not = icmp eq i64 %indvars.iv.next, %wide.trip.count
  br i1 %exitcond.not, label %.thread, label %.lr.ph, !llvm.loop !21

64:                                               ; preds = %.lr.ph79
  %65 = load ptr, ptr @awt_XRRSetScreenConfigAndRate, align 8
  %66 = load ptr, ptr @awt_display, align 8
  %67 = load i16, ptr %7, align 2
  %68 = call i32 %65(ptr noundef %66, ptr noundef nonnull %40, i64 noundef %38, i32 noundef %53, i16 noundef zeroext %67, i16 noundef signext %60, i64 noundef 0) #17
  %69 = load ptr, ptr @awt_display, align 8
  %70 = call i32 @XSync(ptr noundef %69, i32 noundef 0) #17
  %71 = icmp ne i32 %68, 0
  br label %.thread

.thread:                                          ; preds = %63, %58, %.preheader, %52, %41, %64
  %72 = phi i1 [ %71, %64 ], [ true, %41 ], [ true, %52 ], [ true, %.preheader ], [ true, %58 ], [ true, %63 ]
  %73 = load ptr, ptr @awt_XRRFreeScreenConfigInfo, align 8
  call void %73(ptr noundef nonnull %40) #17
  br label %74

74:                                               ; preds = %32, %.thread
  %.1 = phi i1 [ %72, %.thread ], [ true, %32 ]
  call void (...) @awt_output_flush() #17
  %75 = load ptr, ptr %0, align 8
  %76 = getelementptr inbounds i8, ptr %75, i64 120
  %77 = load ptr, ptr %76, align 8
  %78 = call ptr %77(ptr noundef nonnull %0) #17
  %.not68 = icmp eq ptr %78, null
  br i1 %.not68, label %83, label %79

79:                                               ; preds = %74
  %80 = load ptr, ptr %0, align 8
  %81 = getelementptr inbounds i8, ptr %80, i64 136
  %82 = load ptr, ptr %81, align 8
  call void %82(ptr noundef nonnull %0) #17
  br label %83

83:                                               ; preds = %79, %74
  %84 = load ptr, ptr %0, align 8
  %85 = getelementptr inbounds i8, ptr %84, i64 1128
  %86 = load ptr, ptr %85, align 8
  %87 = load ptr, ptr @tkClass, align 8
  %88 = load ptr, ptr @awtUnlockMID, align 8
  call void (ptr, ptr, ptr, ...) %86(ptr noundef nonnull %0, ptr noundef %87, ptr noundef %88) #17
  %89 = load ptr, ptr %0, align 8
  %90 = getelementptr inbounds i8, ptr %89, i64 1824
  %91 = load ptr, ptr %90, align 8
  %92 = call zeroext i8 %91(ptr noundef nonnull %0) #17
  %.not69 = icmp eq i8 %92, 0
  br i1 %.not69, label %97, label %93

93:                                               ; preds = %83
  %94 = load ptr, ptr %0, align 8
  %95 = getelementptr inbounds i8, ptr %94, i64 136
  %96 = load ptr, ptr %95, align 8
  call void %96(ptr noundef nonnull %0) #17
  br label %97

97:                                               ; preds = %93, %83
  br i1 %.not68, label %103, label %98

98:                                               ; preds = %97
  %99 = load ptr, ptr %0, align 8
  %100 = getelementptr inbounds i8, ptr %99, i64 104
  %101 = load ptr, ptr %100, align 8
  %102 = call i32 %101(ptr noundef nonnull %0, ptr noundef nonnull %78) #17
  br label %103

103:                                              ; preds = %98, %97
  br i1 %.1, label %104, label %110

104:                                              ; preds = %103
  %105 = load ptr, ptr %0, align 8
  %106 = getelementptr inbounds i8, ptr %105, i64 1824
  %107 = load ptr, ptr %106, align 8
  %108 = call zeroext i8 %107(ptr noundef nonnull %0) #17
  %.not71 = icmp eq i8 %108, 0
  br i1 %.not71, label %109, label %110

109:                                              ; preds = %104
  call void @JNU_ThrowInternalError(ptr noundef nonnull %0, ptr noundef nonnull @.str.38) #17
  br label %110

110:                                              ; preds = %109, %104, %103
  ret void
}